target datalayout = "e-m:e-p270:32:32-p271:32:32-p272:64:64-i64:64-i128:128-f80:128-n8:16:32:64-S128"
target triple = "x86_64-pc-linux-gnu"

%struct.anon = type { i32, i32 }

; Function Attrs: nounwind null_pointer_is_valid sspstrong uwtable
define hidden i32 @wtap_wtap_encap_to_pcap_encap(i32 noundef %0) #0 {
  %2 = alloca i32, align 4
  %3 = alloca i32, align 4
  %4 = alloca i32, align 4
  %5 = alloca i32, align 4
  store i32 %0, ptr %3, align 4
  call void @llvm.lifetime.start.p0(i64 4, ptr %4) #9
  %6 = load i32, ptr %3, align 4
  switch i32 %6, label %11 [
    i32 5, label %7
    i32 6, label %7
    i32 73, label %8
    i32 27, label %9
    i32 22, label %10
  ]

7:                                                ; preds = %1, %1
  store i32 10, ptr %2, align 4
  store i32 1, ptr %5, align 4
  br label %35

8:                                                ; preds = %1
  store i32 10, ptr %2, align 4
  store i32 1, ptr %5, align 4
  br label %35

9:                                                ; preds = %1
  store i32 107, ptr %2, align 4
  store i32 1, ptr %5, align 4
  br label %35

10:                                               ; preds = %1
  store i32 105, ptr %2, align 4
  store i32 1, ptr %5, align 4
  br label %35

11:                                               ; preds = %1
  store i32 0, ptr %4, align 4
  br label %12

12:                                               ; preds = %31, %11
  %13 = load i32, ptr %4, align 4
  %14 = zext i32 %13 to i64
  %15 = icmp ult i64 %14, 162
  br i1 %15, label %16, label %34

16:                                               ; preds = %12
  %17 = load i32, ptr %4, align 4
  %18 = zext i32 %17 to i64
  %19 = getelementptr [162 x %struct.anon], ptr @pcap_to_wtap_map, i64 0, i64 %18
  %20 = getelementptr inbounds nuw %struct.anon, ptr %19, i32 0, i32 1
  %21 = load i32, ptr %20, align 4
  %22 = load i32, ptr %3, align 4
  %23 = icmp eq i32 %21, %22
  br i1 %23, label %24, label %30

24:                                               ; preds = %16
  %25 = load i32, ptr %4, align 4
  %26 = zext i32 %25 to i64
  %27 = getelementptr [162 x %struct.anon], ptr @pcap_to_wtap_map, i64 0, i64 %26
  %28 = getelementptr inbounds nuw %struct.anon, ptr %27, i32 0, i32 0
  %29 = load i32, ptr %28, align 8
  store i32 %29, ptr %2, align 4
  store i32 1, ptr %5, align 4
  br label %35

30:                                               ; preds = %16
  br label %31

31:                                               ; preds = %30
  %32 = load i32, ptr %4, align 4
  %33 = add i32 %32, 1
  store i32 %33, ptr %4, align 4
  br label %12, !llvm.loop !8

34:                                               ; preds = %12
  store i32 -1, ptr %2, align 4
  store i32 1, ptr %5, align 4
  br label %35

35:                                               ; preds = %34, %24, %10, %9, %8, %7
  call void @llvm.lifetime.end.p0(i64 4, ptr %4) #9
  %36 = load i32, ptr %2, align 4
  ret i32 %36
}