; Function Attrs: nofree norecurse nosync nounwind null_pointer_is_valid sspstrong memory(none) uwtable
define hidden i32 @wtap_wtap_encap_to_pcap_encap(i32 noundef %0) local_unnamed_addr #0 {
  switch i32 %0, label %.preheader [
    i32 5, label %.loopexit
    i32 6, label %.loopexit
    i32 73, label %.loopexit
    i32 27, label %2
    i32 22, label %3
  ]

2:                                                ; preds = %1
  br label %.loopexit

3:                                                ; preds = %1
  br label %.loopexit

4:                                                ; preds = %.preheader
  %indvars.iv.next = add nuw nsw i64 %indvars.iv, 1
  %exitcond.not = icmp eq i64 %indvars.iv.next, 162
  br i1 %exitcond.not, label %.loopexit, label %.preheader, !llvm.loop !8

.preheader:                                       ; preds = %1, %4
  %indvars.iv = phi i64 [ %indvars.iv.next, %4 ], [ 0, %1 ]
  %5 = getelementptr [162 x %struct.anon], ptr @pcap_to_wtap_map, i64 0, i64 %indvars.iv
  %6 = getelementptr inbounds nuw i8, ptr %5, i64 4
  %7 = load i32, ptr %6, align 4
  %8 = icmp eq i32 %7, %0
  br i1 %8, label %9, label %4

9:                                                ; preds = %.preheader
  %10 = load i32, ptr %5, align 8
  br label %.loopexit

.loopexit:                                        ; preds = %4, %1, %1, %1, %9, %3, %2
  %.07 = phi i32 [ %10, %9 ], [ 105, %3 ], [ 107, %2 ], [ 10, %1 ], [ 10, %1 ], [ 10, %1 ], [ -1, %4 ]
  ret i32 %.07
}